target datalayout = "e-m:e-p270:32:32-p271:32:32-p272:64:64-i64:64-i128:128-f80:128-n8:16:32:64-S128"
target triple = "x86_64-pc-linux-gnu"

%"class.llvm::MCCVLoc" = type <{ ptr, i32, i32, i32, i16, i8, i8 }>

; Function Attrs: mustprogress nounwind uwtable
define linkonce_odr hidden void @_ZN4llvm7MCCVLocC2EPKNS_8MCSymbolEjjjjbb(ptr noundef nonnull align 8 dereferenceable(23) %0, ptr noundef %1, i32 noundef %2, i32 noundef %3, i32 noundef %4, i32 noundef %5, i1 noundef zeroext %6, i1 noundef zeroext %7) unnamed_addr #0 comdat align 2 {
  %9 = alloca ptr, align 8
  %10 = alloca ptr, align 8
  %11 = alloca i32, align 4
  %12 = alloca i32, align 4
  %13 = alloca i32, align 4
  %14 = alloca i32, align 4
  %15 = alloca i8, align 1
  %16 = alloca i8, align 1
  store ptr %0, ptr %9, align 8
  store ptr %1, ptr %10, align 8
  store i32 %2, ptr %11, align 4
  store i32 %3, ptr %12, align 4
  store i32 %4, ptr %13, align 4
  store i32 %5, ptr %14, align 4
  %17 = zext i1 %6 to i8
  store i8 %17, ptr %15, align 1
  %18 = zext i1 %7 to i8
  store i8 %18, ptr %16, align 1
  %19 = load ptr, ptr %9, align 8
  %20 = getelementptr inbounds nuw %"class.llvm::MCCVLoc", ptr %19, i32 0, i32 0
  %21 = load ptr, ptr %10, align 8
  store ptr %21, ptr %20, align 8
  %22 = getelementptr inbounds nuw %"class.llvm::MCCVLoc", ptr %19, i32 0, i32 1
  %23 = load i32, ptr %11, align 4
  store i32 %23, ptr %22, align 8
  %24 = getelementptr inbounds nuw %"class.llvm::MCCVLoc", ptr %19, i32 0, i32 2
  %25 = load i32, ptr %12, align 4
  store i32 %25, ptr %24, align 4
  %26 = getelementptr inbounds nuw %"class.llvm::MCCVLoc", ptr %19, i32 0, i32 3
  %27 = load i32, ptr %13, align 4
  store i32 %27, ptr %26, align 8
  %28 = getelementptr inbounds nuw %"class.llvm::MCCVLoc", ptr %19, i32 0, i32 4
  %29 = load i32, ptr %14, align 4
  %30 = trunc i32 %29 to i16
  store i16 %30, ptr %28, align 4
  %31 = getelementptr inbounds nuw %"class.llvm::MCCVLoc", ptr %19, i32 0, i32 5
  %32 = load i8, ptr %15, align 1
  %33 = trunc i8 %32 to i1
  %34 = zext i1 %33 to i16
  %35 = trunc i16 %34 to i8
  %36 = load i8, ptr %31, align 2
  %37 = and i8 %35, 1
  %38 = and i8 %36, -2
  %39 = or i8 %38, %37
  store i8 %39, ptr %31, align 2
  %40 = getelementptr inbounds nuw %"class.llvm::MCCVLoc", ptr %19, i32 0, i32 5
  %41 = load i8, ptr %16, align 1
  %42 = trunc i8 %41 to i1
  %43 = zext i1 %42 to i16
  %44 = trunc i16 %43 to i8
  %45 = load i8, ptr %40, align 2
  %46 = and i8 %44, 1
  %47 = shl i8 %46, 1
  %48 = and i8 %45, -3
  %49 = or i8 %48, %47
  store i8 %49, ptr %40, align 2
  ret void
}

; Function Attrs: mustprogress nounwind uwtable
define dso_local void @_ZN4llvm15CodeViewContext11recordCVLocERNS_9MCContextEPKNS_8MCSymbolEjjjjbb(ptr noundef nonnull align 8 dereferenceable(289) %0, ptr noundef nonnull align 8 dereferenceable(2432) %1, ptr noundef %2, i32 noundef %3, i32 noundef %4, i32 noundef %5, i32 noundef %6, i1 noundef zeroext %7, i1 noundef zeroext %8) #0 align 2 {
  %10 = alloca ptr, align 8
  %11 = alloca ptr, align 8
  %12 = alloca ptr, align 8
  %13 = alloca i32, align 4
  %14 = alloca i32, align 4
  %15 = alloca i32, align 4
  %16 = alloca i32, align 4
  %17 = alloca i8, align 1
  %18 = alloca i8, align 1
  %19 = alloca %"class.llvm::MCCVLoc", align 8
  store ptr %0, ptr %10, align 8
  store ptr %1, ptr %11, align 8
  store ptr %2, ptr %12, align 8
  store i32 %3, ptr %13, align 4
  store i32 %4, ptr %14, align 4
  store i32 %5, ptr %15, align 4
  store i32 %6, ptr %16, align 4
  %20 = zext i1 %7 to i8
  store i8 %20, ptr %17, align 1
  %21 = zext i1 %8 to i8
  store i8 %21, ptr %18, align 1
  %22 = load ptr, ptr %10, align 8
  %23 = load ptr, ptr %12, align 8
  %24 = load i32, ptr %13, align 4
  %25 = load i32, ptr %14, align 4
  %26 = load i32, ptr %15, align 4
  %27 = load i32, ptr %16, align 4
  %28 = load i8, ptr %17, align 1
  %29 = trunc i8 %28 to i1
  %30 = load i8, ptr %18, align 1
  %31 = trunc i8 %30 to i1
  call void @_ZN4llvm7MCCVLocC2EPKNS_8MCSymbolEjjjjbb(ptr noundef nonnull align 8 dereferenceable(23) %19, ptr noundef %23, i32 noundef %24, i32 noundef %25, i32 noundef %26, i32 noundef %27, i1 noundef zeroext %29, i1 noundef zeroext %31)
  call void @_ZN4llvm15CodeViewContext12addLineEntryERKNS_7MCCVLocE(ptr noundef nonnull align 8 dereferenceable(289) %22, ptr noundef nonnull align 8 dereferenceable(23) %19)
  ret void
}