; Function Attrs: mustprogress nounwind uwtable
define dso_local void @_ZN4llvm15CodeViewContext11recordCVLocERNS_9MCContextEPKNS_8MCSymbolEjjjjbb(ptr noundef nonnull align 8 dereferenceable(289) %0, ptr nocapture noundef nonnull readnone align 8 dereferenceable(2432) %1, ptr noundef %2, i32 noundef %3, i32 noundef %4, i32 noundef %5, i32 noundef %6, i1 noundef zeroext %7, i1 noundef zeroext %8) local_unnamed_addr #0 align 2 {
  %10 = alloca %"class.llvm::MCCVLoc", align 8
  store ptr %2, ptr %10, align 8
  %11 = getelementptr inbounds nuw i8, ptr %10, i64 8
  store i32 %3, ptr %11, align 8
  %12 = getelementptr inbounds nuw i8, ptr %10, i64 12
  store i32 %4, ptr %12, align 4
  %13 = getelementptr inbounds nuw i8, ptr %10, i64 16
  store i32 %5, ptr %13, align 8
  %14 = getelementptr inbounds nuw i8, ptr %10, i64 20
  %15 = trunc i32 %6 to i16
  store i16 %15, ptr %14, align 4
  %16 = getelementptr inbounds nuw i8, ptr %10, i64 22
  %17 = zext i1 %7 to i8
  %18 = select i1 %8, i8 2, i8 0
  %19 = or disjoint i8 %18, %17
  store i8 %19, ptr %16, align 2
  call void @_ZN4llvm15CodeViewContext12addLineEntryERKNS_7MCCVLocE(ptr noundef nonnull align 8 dereferenceable(289) %0, ptr noundef nonnull align 8 dereferenceable(23) %10)
  ret void
}